MPASM 5.55  /HOME/SVILEN/MPLABXPROJECTS/CGAT   1-18-2015  19:56:00         PAGE  1


LOC  OBJECT CODE     LINE SOURCE TEXT
  VALUE

                      00001 #include <p12f675.inc>
                      00001         LIST
                      00002 
                      00003 ;==========================================================================
                      00004 ;  MPASM PIC12F675 processor include
                      00005 ; 
                      00006 ;  (c) Copyright 1999-2014 Microchip Technology, All rights reserved
                      00007 ;==========================================================================
                      00008 
                      00366         LIST
                      00002     radix       decimal
2007   3F84           00003     __CONFIG _CP_OFF & _CPD_OFF & _BODEN_OFF & _MCLRE_OFF & _WDT_OFF & _INTRC_OSC_NOCLKOUT &_PWRTE_ON
                      00004     errorlevel -302
                      00005 
                      00006 ;variable definitions --------------
                      00007         cblock  0x25
  00000025            00008                 delay_1
  00000026            00009                 delay_2 ;–ø–æ–ª–∑–≤–∞—Ç —Å–µ –æ—Ç delay –ø–æ–¥–ø—Ä–æ–≥—Ä–∞–º–∞—Ç–∞
  00000027            00010         timer   ;–±—Ä–æ—è—á—ä—Ç –Ω–∞–º–∞–ª—è–≤–∞ –≤—Å—è–∫–∞ —Å–µ–∫—É–Ω–¥–∞ –∏ –ø—Ä–∏ –¥–æ—Å—Ç–∏–≥–∞–Ω–µ 
                            –Ω–∞ 0
                      00011                 ;—Å–µ –≤–∏–∫–∞ resetDevice. –°–ª–µ–¥–∏ —Å–µ –≤—Ö–æ–¥–∞ HEARTBEAT –∏ –∞–∫–æ
                      00012                 ;—Å–µ –ø—Ä–æ–º–µ–Ω–∏, —Ç–æ –≤ timer —Å–µ –∑–∞–ø–∏—Å–≤–∞ TIMEOUT
  00000028            00013         prev    ;–ü–∞–∑–∏ –ø–æ—Å–ª–µ–¥–Ω–∞—Ç–∞ —Å—Ç–æ–π–Ω–æ—Å—Ç –∑–∞ –Ω–∏–≤–æ—Ç–æ –Ω–∞ HEARTBEAT –≤—Ö–æ–
                            ¥–∞
                      00014         endc
                      00015 
                      00016 #define TIMEOUT     120
                      00017 ;pin def
                      00018 #define  HEARTBEAT   5  ;–≤—Ö–æ–¥ –∫–æ–π—Ç–æ —Å–µ –ø—Ä–æ–º–µ–Ω—è –ø–µ—Ä–∏–æ–¥–∏—á–Ω–æ –∞–∫–æ –≤—ä–Ω—à–Ω–
                            æ—Ç–æ
                      00019                         ;—É—Å—Ç—Ä–æ–π—Å—Ç–≤–æ –µ –û–ö
                      00020 #define  HBMASK      0x20
                      00021 #define  RST         4  ;–ò–∑—Ö–æ–¥ –∑–∞ —Ä–µ—Å–µ—Ç –Ω–∞ –≤—ä–Ω—à–Ω–æ—Ç–æ —É—Å—Ç—Ä–æ–π—Å—Ç–≤–æ
                      00022 #define  ACTIVE      2  ;–ò–Ω–¥–∏–∫–∞—Ç–æ—Ä –∑–∞ –∞–∫—Ç–∏–≤–Ω–æ—Å—Ç
                      00023 ;–¥–µ—Ñ–∏–Ω–∏—Ü–∏–∏ –Ω–∞ –º–∞–∫—Ä–æ—Å–∏ -----------------
                      00024 SELECT_BANK_0   macro
                      00025                                 bcf     STATUS,RP0
                      00026                                 endm
                      00027 SELECT_BANK_1   macro
                      00028                                 bsf     STATUS,RP0
                      00029                                 endm
                      00030 ;code-------------------------------
                      00031                 ORG     0x000
0000   2???           00032                 goto    main
                      00033 
                      00034                 ORG 0x004
0004   0009           00035                 retfie
                      00036 ;–ø–æ–¥–ø—Ä–æ–≥—Ä–∞–º–∏------------------------
0005                  00037 delay ;–ó–∞–∫—ä—Å–Ω–µ–Ω–∏–µ –æ—Ç –æ–∫–æ–ª–æ 250–º—Å
0005   30FF           00038                 movlw   255
0006   00A5           00039                 movwf   delay_1
0007   30FF           00040                 movlw   255
0008   00A6           00041                 movwf   delay_2
MPASM 5.55  /HOME/SVILEN/MPLABXPROJECTS/CGAT   1-18-2015  19:56:00         PAGE  2


LOC  OBJECT CODE     LINE SOURCE TEXT
  VALUE

0009                  00042 delay_loop
0009   0000           00043                 nop
000A   0BA5           00044                 decfsz  delay_1,1
000B   2???           00045                 goto    delay_loop
000C   30FF           00046                 movlw   255
000D   00A5           00047                 movwf   delay_1
000E   0BA6           00048                 decfsz  delay_2,1
000F   2???           00049                 goto    delay_loop
0010   0008           00050                 return
                      00051 
                      00052 ;---------------------------------------------------------------------
                      00053 
0011                  00054 main
                      00055 ;io pins
0011   3007           00056                 movlw   0x07
0012   0099           00057                 movwf   CMCON ;GP0,1,2 - –¶–∏—Ñ—Ä–æ–≤–∏ –≤—Ö–æ–¥–æ–≤–µ/–∏–∑—Ö–æ–¥–∏
                      00058                 SELECT_BANK_1
0013   1683               M                                 bsf     STATUS,RP0
                      00059                 ;calibration
0014   23FF           00060                 call    0x3ff   ; Get the cal value
0015   0090           00061                 movwf   OSCCAL  ; Calibrate
                      00062 
0016   019F           00063                 clrf    ANSEL            ;GP0-GP3 —Å–∞ —Ü–∏—Ñ—Ä–æ–≤–∏ –≤—Ö–æ–¥–æ–≤–µ/–∏–∑—Ö–æ–¥–∏
                      00064                 ;TRISIO[x]=1 - input
0017   1685           00065                 bsf             TRISIO,HEARTBEAT
0018   1205           00066                 bcf             TRISIO,RST
0019   1105           00067         bcf     TRISIO,ACTIVE
                      00068 
                      00069                 SELECT_BANK_0
001A   1283               M                                 bcf     STATUS,RP0
001B   3078           00070         movlw   TIMEOUT
001C   00A7           00071         movwf   timer
001D   1605           00072         bsf     GPIO,RST
                      00073 
001E                  00074 main_loop
001E   1105           00075         bcf     GPIO,ACTIVE
001F   2???           00076         call    delay
0020   2???           00077         call    delay
0021   1505           00078         bsf     GPIO,ACTIVE
0022   2???           00079         call    delay
0023   2???           00080         call    delay
                      00081 
                      00082 ;–ø—Ä–æ–≤–µ—Ä–∫–∞ –Ω–∞ HEARTBEAT
0024   0805           00083         movfw   GPIO
0025   3920           00084         andlw   HBMASK
0026   0628           00085         xorwf   prev,0
0027   1903           00086         btfsc   STATUS,Z
0028   2???           00087         goto    decTimer
                      00088 ;–∏–º–∞ –ø—Ä–æ–º—è–Ω–∞ –Ω–∞ HEARTBEAT. –í—ä–∑—Å—Ç–∞–Ω–æ–≤—è–≤–∞ —Å–µ timer –∏ —Å–µ –æ–±–Ω–æ–≤—è–≤–∞ prev
0029   3078           00089         movlw   TIMEOUT
002A   00A7           00090         movwf   timer
002B   0805           00091         movfw   GPIO    
002C   3920           00092         andlw   HBMASK
MPASM 5.55  /HOME/SVILEN/MPLABXPROJECTS/CGAT   1-18-2015  19:56:00         PAGE  3


LOC  OBJECT CODE     LINE SOURCE TEXT
  VALUE

002D   00A8           00093         movwf   prev
002E   2???           00094         goto    main_loop
                      00095 
002F                  00096 decTimer
002F   0BA7           00097         decfsz  timer,1
0030   2???           00098         goto    main_loop
0031                  00099 resetDevice ;–†–µ—Å—Ç–∞—Ä—Ç –Ω–∞ –≤—ä–Ω—à–Ω–æ—Ç–æ —É—Å—Ç—Ä–æ–π—Å—Ç–≤–æ
0031   1205           00100         bcf     GPIO,RST
0032   2???           00101         call    delay
0033   2???           00102         call    delay
0034   2???           00103         call    delay
0035   2???           00104         call    delay
0036   3078           00105         movlw   TIMEOUT
0037   00A7           00106         movwf   timer
0038   1605           00107         bsf     GPIO,RST
0039   2???           00108         goto    main_loop
                      00109 
3F84                  00110         END
MPASM 5.55  /HOME/SVILEN/MPLABXPROJECTS/CGAT   1-18-2015  19:56:00         PAGE  4


SYMBOL TABLE
  LABEL                             VALUE 

ACTIVE                            2
ADCON0                            0000001F
ADCS0                             00000004
ADCS1                             00000005
ADCS2                             00000006
ADFM                              00000007
ADIE                              00000006
ADIF                              00000006
ADON                              00000000
ADRESH                            0000001E
ADRESL                            0000009E
ANS0                              00000000
ANS1                              00000001
ANS2                              00000002
ANS3                              00000003
ANSEL                             0000009F
C                                 00000000
CAL0                              00000002
CAL1                              00000003
CAL2                              00000004
CAL3                              00000005
CAL4                              00000006
CAL5                              00000007
CHS0                              00000002
CHS1                              00000003
CINV                              00000004
CIS                               00000003
CM0                               00000000
CM1                               00000001
CM2                               00000002
CMCON                             00000019
CMIE                              00000003
CMIF                              00000003
COUT                              00000006
DC                                00000001
EEADR                             0000009B
EECON1                            0000009C
EECON2                            0000009D
EEDAT                             0000009A
EEDATA                            0000009A
EEIE                              00000007
EEIF                              00000007
F                                 00000001
FSR                               00000004
GIE                               00000007
GO                                00000001
GO_DONE                           00000001
GO_NOT_DONE                       00000001
GP0                               00000000
GP1                               00000001
GP2                               00000002
GP3                               00000003
GP4                               00000004
MPASM 5.55  /HOME/SVILEN/MPLABXPROJECTS/CGAT   1-18-2015  19:56:00         PAGE  5


SYMBOL TABLE
  LABEL                             VALUE 

GP5                               00000005
GPIE                              00000003
GPIF                              00000000
GPIO                              00000005
GPIO0                             00000000
GPIO1                             00000001
GPIO2                             00000002
GPIO3                             00000003
GPIO4                             00000004
GPIO5                             00000005
HBMASK                            0x20
HEARTBEAT                         5
INDF                              00000000
INTCON                            0000000B
INTE                              00000004
INTEDG                            00000006
INTF                              00000001
IOC                               00000096
IOC0                              00000000
IOC1                              00000001
IOC2                              00000002
IOC3                              00000003
IOC4                              00000004
IOC5                              00000005
IOCB                              00000096
IOCB0                             00000000
IOCB1                             00000001
IOCB2                             00000002
IOCB3                             00000003
IOCB4                             00000004
IOCB5                             00000005
IRP                               00000007
NOT_BOD                           00000000
NOT_BOR                           00000000
NOT_DONE                          00000001
NOT_GPPU                          00000007
NOT_PD                            00000003
NOT_POR                           00000001
NOT_T1SYNC                        00000002
NOT_TO                            00000004
OPTION_REG                        00000081
OSCCAL                            00000090
PCL                               00000002
PCLATH                            0000000A
PCON                              0000008E
PEIE                              00000006
PIE1                              0000008C
PIR1                              0000000C
PS0                               00000000
PS1                               00000001
PS2                               00000002
PSA                               00000003
RD                                00000000
MPASM 5.55  /HOME/SVILEN/MPLABXPROJECTS/CGAT   1-18-2015  19:56:00         PAGE  6


SYMBOL TABLE
  LABEL                             VALUE 

RP0                               00000005
RP1                               00000006
RST                               4
SELECT_BANK_0                     
SELECT_BANK_1                     
STATUS                            00000003
T0CS                              00000005
T0IE                              00000005
T0IF                              00000002
T0SE                              00000004
T1CKPS0                           00000004
T1CKPS1                           00000005
T1CON                             00000010
T1IE                              00000000
T1IF                              00000000
T1OSCEN                           00000003
TIMEOUT                           120
TMR0                              00000001
TMR0IE                            00000005
TMR0IF                            00000002
TMR1                              0000000E
TMR1CS                            00000001
TMR1GE                            00000006
TMR1H                             0000000F
TMR1IE                            00000000
TMR1IF                            00000000
TMR1L                             0000000E
TMR1ON                            00000000
TRISIO                            00000085
TRISIO0                           00000000
TRISIO1                           00000001
TRISIO2                           00000002
TRISIO3                           00000003
TRISIO4                           00000004
TRISIO5                           00000005
VCFG                              00000006
VR0                               00000000
VR1                               00000001
VR2                               00000002
VR3                               00000003
VRCON                             00000099
VREN                              00000007
VRR                               00000005
W                                 00000000
WPU                               00000095
WPU0                              00000000
WPU1                              00000001
WPU2                              00000002
WPU4                              00000004
WPU5                              00000005
WR                                00000001
WREN                              00000002
WRERR                             00000003
MPASM 5.55  /HOME/SVILEN/MPLABXPROJECTS/CGAT   1-18-2015  19:56:00         PAGE  7


SYMBOL TABLE
  LABEL                             VALUE 

Z                                 00000002
_BODEN_OFF                        00003FBF
_BODEN_ON                         00003FFF
_BOREN_OFF                        00003FBF
_BOREN_ON                         00003FFF
_CONFIG                           00002007
_CPD_OFF                          00003FFF
_CPD_ON                           00003EFF
_CP_OFF                           00003FFF
_CP_ON                            00003F7F
_DEVID1                           00002006
_EC_OSC                           00003FFB
_EXTRC_OSC_CLKOUT                 00003FFF
_EXTRC_OSC_NOCLKOUT               00003FFE
_FOSC_EC                          00003FFB
_FOSC_EXTRCCLK                    00003FFF
_FOSC_EXTRCIO                     00003FFE
_FOSC_HS                          00003FFA
_FOSC_INTRCCLK                    00003FFD
_FOSC_INTRCIO                     00003FFC
_FOSC_LP                          00003FF8
_FOSC_XT                          00003FF9
_HS_OSC                           00003FFA
_IDLOC0                           00002000
_IDLOC1                           00002001
_IDLOC2                           00002002
_IDLOC3                           00002003
_INTRC_OSC_CLKOUT                 00003FFD
_INTRC_OSC_NOCLKOUT               00003FFC
_LP_OSC                           00003FF8
_MCLRE_OFF                        00003FDF
_MCLRE_ON                         00003FFF
_PWRTE_OFF                        00003FFF
_PWRTE_ON                         00003FEF
_WDTE_OFF                         00003FF7
_WDTE_ON                          00003FFF
_WDT_OFF                          00003FF7
_WDT_ON                           00003FFF
_XT_OSC                           00003FF9
__12F675                          00000001
decTimer                          0000002F
delay                             00000005
delay_1                           00000025
delay_2                           00000026
delay_loop                        00000009
main                              00000011
main_loop                         0000001E
prev                              00000028
resetDevice                       00000031
timer                             00000027

MPASM 5.55  /HOME/SVILEN/MPLABXPROJECTS/CGAT   1-18-2015  19:56:00         PAGE  8





Errors   :     0
Warnings :     0 reported,     0 suppressed
Messages :     0 reported,     5 suppressed

